target datalayout = "e-m:e-p270:32:32-p271:32:32-p272:64:64-i64:64-i128:128-f80:128-n8:16:32:64-S128"
target triple = "x86_64-pc-linux-gnu"

%"class.Ipopt::PenaltyLSAcceptor" = type { %"class.Ipopt::BacktrackingLSAcceptor.base", double, double, double, double, i32, double, i32, double, double, double, double, %"class.Ipopt::SmartPtr.3", %"class.Ipopt::SmartPtr.3", double, double, double, double, double, double, double, %"class.Ipopt::SmartPtr.4" }
%"class.Ipopt::BacktrackingLSAcceptor.base" = type { %"class.Ipopt::AlgorithmStrategyObject.base" }
%"class.Ipopt::AlgorithmStrategyObject.base" = type <{ %"class.Ipopt::ReferencedObject.base", [4 x i8], %"class.Ipopt::SmartPtr", %"class.Ipopt::SmartPtr.0", %"class.Ipopt::SmartPtr.1", %"class.Ipopt::SmartPtr.2", i8 }>
%"class.Ipopt::ReferencedObject.base" = type <{ ptr, i32 }>
%"class.Ipopt::SmartPtr" = type { ptr }
%"class.Ipopt::SmartPtr.0" = type { ptr }
%"class.Ipopt::SmartPtr.1" = type { ptr }
%"class.Ipopt::SmartPtr.2" = type { ptr }
%"class.Ipopt::SmartPtr.3" = type { ptr }
%"class.Ipopt::SmartPtr.4" = type { ptr }
%"class.Ipopt::AlgorithmStrategyObject" = type <{ %"class.Ipopt::ReferencedObject.base", [4 x i8], %"class.Ipopt::SmartPtr", %"class.Ipopt::SmartPtr.0", %"class.Ipopt::SmartPtr.1", %"class.Ipopt::SmartPtr.2", i8, [7 x i8] }>

@.str.19 = private unnamed_addr constant [70 x i8] c"Checking acceptability for trial step size alpha_primal_test=%13.6e:\0A\00", align 1
@.str.20 = private unnamed_addr constant [70 x i8] c"  New values of barrier function     = %23.16e  (reference %23.16e):\0A\00", align 1
@.str.21 = private unnamed_addr constant [70 x i8] c"  New values of constraint violation = %23.16e  (reference %23.16e):\0A\00", align 1
@.str.22 = private unnamed_addr constant [68 x i8] c"  Checking Armijo Condition with pred = %23.16e and ared = %23.16e\0A\00", align 1
@.str.23 = private unnamed_addr constant [15 x i8] c"   Success...\0A\00", align 1
@.str.24 = private unnamed_addr constant [14 x i8] c"   Failed...\0A\00", align 1

; Function Attrs: mustprogress nounwind uwtable
define linkonce_odr noundef nonnull align 8 dereferenceable(40) ptr @_ZNK5Ipopt8SmartPtrIKNS_10JournalistEEdeEv(ptr noundef nonnull align 8 dereferenceable(8) %0) #5 comdat align 2 {
  %2 = alloca ptr, align 8
  store ptr %0, ptr %2, align 8
  %3 = load ptr, ptr %2, align 8
  %4 = getelementptr inbounds %"class.Ipopt::SmartPtr", ptr %3, i32 0, i32 0
  %5 = load ptr, ptr %4, align 8
  ret ptr %5
}

; Function Attrs: mustprogress nounwind uwtable
define linkonce_odr noundef nonnull align 8 dereferenceable(2185) ptr @_ZNK5Ipopt8SmartPtrINS_25IpoptCalculatedQuantitiesEEdeEv(ptr noundef nonnull align 8 dereferenceable(8) %0) #5 comdat align 2 {
  %2 = alloca ptr, align 8
  store ptr %0, ptr %2, align 8
  %3 = load ptr, ptr %2, align 8
  %4 = getelementptr inbounds %"class.Ipopt::SmartPtr.2", ptr %3, i32 0, i32 0
  %5 = load ptr, ptr %4, align 8
  ret ptr %5
}

; Function Attrs: mustprogress uwtable
define linkonce_odr noundef nonnull align 8 dereferenceable(40) ptr @_ZNK5Ipopt23AlgorithmStrategyObject5JnlstEv(ptr noundef nonnull align 8 dereferenceable(49) %0) #4 comdat align 2 {
  %2 = alloca ptr, align 8
  store ptr %0, ptr %2, align 8
  %3 = load ptr, ptr %2, align 8
  %4 = getelementptr inbounds %"class.Ipopt::AlgorithmStrategyObject", ptr %3, i32 0, i32 2
  %5 = call noundef nonnull align 8 dereferenceable(40) ptr @_ZNK5Ipopt8SmartPtrIKNS_10JournalistEEdeEv(ptr noundef nonnull align 8 dereferenceable(8) %4)
  ret ptr %5
}

; Function Attrs: mustprogress uwtable
define linkonce_odr noundef nonnull align 8 dereferenceable(2185) ptr @_ZNK5Ipopt23AlgorithmStrategyObject4IpCqEv(ptr noundef nonnull align 8 dereferenceable(49) %0) #4 comdat align 2 {
  %2 = alloca ptr, align 8
  store ptr %0, ptr %2, align 8
  %3 = load ptr, ptr %2, align 8
  %4 = getelementptr inbounds %"class.Ipopt::AlgorithmStrategyObject", ptr %3, i32 0, i32 5
  %5 = call noundef nonnull align 8 dereferenceable(2185) ptr @_ZNK5Ipopt8SmartPtrINS_25IpoptCalculatedQuantitiesEEdeEv(ptr noundef nonnull align 8 dereferenceable(8) %4)
  ret ptr %5
}

; Function Attrs: mustprogress uwtable
define noundef zeroext i1 @_ZN5Ipopt17PenaltyLSAcceptor30CheckAcceptabilityOfTrialPointEd(ptr noundef nonnull align 8 dereferenceable(224) %0, double noundef %1) unnamed_addr #4 align 2 {
  %3 = alloca ptr, align 8
  %4 = alloca double, align 8
  %5 = alloca double, align 8
  %6 = alloca double, align 8
  %7 = alloca double, align 8
  %8 = alloca double, align 8
  %9 = alloca i8, align 1
  store ptr %0, ptr %3, align 8
  store double %1, ptr %4, align 8
  %10 = load ptr, ptr %3, align 8
  %11 = call noundef nonnull align 8 dereferenceable(2185) ptr @_ZNK5Ipopt23AlgorithmStrategyObject4IpCqEv(ptr noundef nonnull align 8 dereferenceable(49) %10)
  %12 = load ptr, ptr %11, align 8
  %13 = getelementptr inbounds ptr, ptr %12, i64 9
  %14 = load ptr, ptr %13, align 8
  %15 = call noundef double %14(ptr noundef nonnull align 8 dereferenceable(2185) %11)
  store double %15, ptr %5, align 8
  %16 = call noundef nonnull align 8 dereferenceable(2185) ptr @_ZNK5Ipopt23AlgorithmStrategyObject4IpCqEv(ptr noundef nonnull align 8 dereferenceable(49) %10)
  %17 = load ptr, ptr %16, align 8
  %18 = getelementptr inbounds ptr, ptr %17, i64 7
  %19 = load ptr, ptr %18, align 8
  %20 = call noundef double %19(ptr noundef nonnull align 8 dereferenceable(2185) %16)
  store double %20, ptr %6, align 8
  %21 = call noundef nonnull align 8 dereferenceable(40) ptr @_ZNK5Ipopt23AlgorithmStrategyObject5JnlstEv(ptr noundef nonnull align 8 dereferenceable(49) %10)
  %22 = load double, ptr %4, align 8
  %23 = load ptr, ptr %21, align 8
  %24 = getelementptr inbounds ptr, ptr %23, i64 2
  %25 = load ptr, ptr %24, align 8
  call void (ptr, i32, i32, ptr, ...) %25(ptr noundef nonnull align 8 dereferenceable(40) %21, i32 noundef 6, i32 noundef 8, ptr noundef @.str.19, double noundef %22)
  %26 = call noundef nonnull align 8 dereferenceable(40) ptr @_ZNK5Ipopt23AlgorithmStrategyObject5JnlstEv(ptr noundef nonnull align 8 dereferenceable(49) %10)
  %27 = load double, ptr %6, align 8
  %28 = getelementptr inbounds %"class.Ipopt::PenaltyLSAcceptor", ptr %10, i32 0, i32 9
  %29 = load double, ptr %28, align 8
  %30 = load ptr, ptr %26, align 8
  %31 = getelementptr inbounds ptr, ptr %30, i64 2
  %32 = load ptr, ptr %31, align 8
  call void (ptr, i32, i32, ptr, ...) %32(ptr noundef nonnull align 8 dereferenceable(40) %26, i32 noundef 6, i32 noundef 8, ptr noundef @.str.20, double noundef %27, double noundef %29)
  %33 = call noundef nonnull align 8 dereferenceable(40) ptr @_ZNK5Ipopt23AlgorithmStrategyObject5JnlstEv(ptr noundef nonnull align 8 dereferenceable(49) %10)
  %34 = load double, ptr %5, align 8
  %35 = getelementptr inbounds %"class.Ipopt::PenaltyLSAcceptor", ptr %10, i32 0, i32 8
  %36 = load double, ptr %35, align 8
  %37 = load ptr, ptr %33, align 8
  %38 = getelementptr inbounds ptr, ptr %37, i64 2
  %39 = load ptr, ptr %38, align 8
  call void (ptr, i32, i32, ptr, ...) %39(ptr noundef nonnull align 8 dereferenceable(40) %33, i32 noundef 6, i32 noundef 8, ptr noundef @.str.21, double noundef %34, double noundef %36)
  %40 = getelementptr inbounds %"class.Ipopt::PenaltyLSAcceptor", ptr %10, i32 0, i32 14
  %41 = load double, ptr %40, align 8
  %42 = fcmp olt double %41, 0.000000e+00
  br i1 %42, label %43, label %46

43:                                               ; preds = %2
  %44 = load double, ptr %4, align 8
  %45 = call noundef double @_ZN5Ipopt17PenaltyLSAcceptor8CalcPredEd(ptr noundef nonnull align 8 dereferenceable(224) %10, double noundef %44)
  store double %45, ptr %7, align 8
  br label %49

46:                                               ; preds = %2
  %47 = getelementptr inbounds %"class.Ipopt::PenaltyLSAcceptor", ptr %10, i32 0, i32 14
  %48 = load double, ptr %47, align 8
  store double %48, ptr %7, align 8
  br label %49

49:                                               ; preds = %46, %43
  %50 = load double, ptr %7, align 8
  %51 = getelementptr inbounds %"class.Ipopt::PenaltyLSAcceptor", ptr %10, i32 0, i32 20
  store double %50, ptr %51, align 8
  %52 = getelementptr inbounds %"class.Ipopt::PenaltyLSAcceptor", ptr %10, i32 0, i32 9
  %53 = load double, ptr %52, align 8
  %54 = getelementptr inbounds %"class.Ipopt::PenaltyLSAcceptor", ptr %10, i32 0, i32 18
  %55 = load double, ptr %54, align 8
  %56 = getelementptr inbounds %"class.Ipopt::PenaltyLSAcceptor", ptr %10, i32 0, i32 8
  %57 = load double, ptr %56, align 8
  %58 = call double @llvm.fmuladd.f64(double %55, double %57, double %53)
  %59 = load double, ptr %6, align 8
  %60 = getelementptr inbounds %"class.Ipopt::PenaltyLSAcceptor", ptr %10, i32 0, i32 18
  %61 = load double, ptr %60, align 8
  %62 = load double, ptr %5, align 8
  %63 = call double @llvm.fmuladd.f64(double %61, double %62, double %59)
  %64 = fsub double %58, %63
  store double %64, ptr %8, align 8
  %65 = call noundef nonnull align 8 dereferenceable(40) ptr @_ZNK5Ipopt23AlgorithmStrategyObject5JnlstEv(ptr noundef nonnull align 8 dereferenceable(49) %10)
  %66 = load double, ptr %7, align 8
  %67 = load double, ptr %8, align 8
  %68 = load ptr, ptr %65, align 8
  %69 = getelementptr inbounds ptr, ptr %68, i64 2
  %70 = load ptr, ptr %69, align 8
  call void (ptr, i32, i32, ptr, ...) %70(ptr noundef nonnull align 8 dereferenceable(40) %65, i32 noundef 6, i32 noundef 8, ptr noundef @.str.22, double noundef %66, double noundef %67)
  %71 = getelementptr inbounds %"class.Ipopt::PenaltyLSAcceptor", ptr %10, i32 0, i32 3
  %72 = load double, ptr %71, align 8
  %73 = load double, ptr %7, align 8
  %74 = fmul double %72, %73
  %75 = load double, ptr %8, align 8
  %76 = getelementptr inbounds %"class.Ipopt::PenaltyLSAcceptor", ptr %10, i32 0, i32 9
  %77 = load double, ptr %76, align 8
  %78 = getelementptr inbounds %"class.Ipopt::PenaltyLSAcceptor", ptr %10, i32 0, i32 18
  %79 = load double, ptr %78, align 8
  %80 = getelementptr inbounds %"class.Ipopt::PenaltyLSAcceptor", ptr %10, i32 0, i32 8
  %81 = load double, ptr %80, align 8
  %82 = call double @llvm.fmuladd.f64(double %79, double %81, double %77)
  %83 = call noundef zeroext i1 @_ZN5Ipopt10Compare_leEddd(double noundef %74, double noundef %75, double noundef %82)
  br i1 %83, label %84, label %89

84:                                               ; preds = %49
  %85 = call noundef nonnull align 8 dereferenceable(40) ptr @_ZNK5Ipopt23AlgorithmStrategyObject5JnlstEv(ptr noundef nonnull align 8 dereferenceable(49) %10)
  %86 = load ptr, ptr %85, align 8
  %87 = getelementptr inbounds ptr, ptr %86, i64 2
  %88 = load ptr, ptr %87, align 8
  call void (ptr, i32, i32, ptr, ...) %88(ptr noundef nonnull align 8 dereferenceable(40) %85, i32 noundef 6, i32 noundef 8, ptr noundef @.str.23)
  store i8 1, ptr %9, align 1
  br label %94

89:                                               ; preds = %49
  %90 = call noundef nonnull align 8 dereferenceable(40) ptr @_ZNK5Ipopt23AlgorithmStrategyObject5JnlstEv(ptr noundef nonnull align 8 dereferenceable(49) %10)
  %91 = load ptr, ptr %90, align 8
  %92 = getelementptr inbounds ptr, ptr %91, i64 2
  %93 = load ptr, ptr %92, align 8
  call void (ptr, i32, i32, ptr, ...) %93(ptr noundef nonnull align 8 dereferenceable(40) %90, i32 noundef 6, i32 noundef 8, ptr noundef @.str.24)
  store i8 0, ptr %9, align 1
  br label %94

94:                                               ; preds = %89, %84
  %95 = load i8, ptr %9, align 1
  %96 = trunc i8 %95 to i1
  ret i1 %96
}