; Function Attrs: mustprogress uwtable
define noundef zeroext i1 @_ZN5Ipopt17PenaltyLSAcceptor30CheckAcceptabilityOfTrialPointEd(ptr nocapture noundef nonnull align 8 dereferenceable(224) %0, double noundef %1) unnamed_addr #3 align 2 {
  %3 = getelementptr inbounds i8, ptr %0, i64 40
  %4 = load ptr, ptr %3, align 8
  %5 = load ptr, ptr %4, align 8
  %6 = getelementptr inbounds i8, ptr %5, i64 72
  %7 = load ptr, ptr %6, align 8
  %8 = tail call noundef double %7(ptr noundef nonnull align 8 dereferenceable(2185) %4)
  %9 = load ptr, ptr %3, align 8
  %10 = load ptr, ptr %9, align 8
  %11 = getelementptr inbounds i8, ptr %10, i64 56
  %12 = load ptr, ptr %11, align 8
  %13 = tail call noundef double %12(ptr noundef nonnull align 8 dereferenceable(2185) %9)
  %14 = getelementptr inbounds i8, ptr %0, i64 16
  %15 = load ptr, ptr %14, align 8
  %16 = load ptr, ptr %15, align 8
  %17 = getelementptr inbounds i8, ptr %16, i64 16
  %18 = load ptr, ptr %17, align 8
  tail call void (ptr, i32, i32, ptr, ...) %18(ptr noundef nonnull align 8 dereferenceable(40) %15, i32 noundef 6, i32 noundef 8, ptr noundef nonnull @.str.19, double noundef %1)
  %19 = load ptr, ptr %14, align 8
  %20 = getelementptr inbounds i8, ptr %0, i64 120
  %21 = load double, ptr %20, align 8
  %22 = load ptr, ptr %19, align 8
  %23 = getelementptr inbounds i8, ptr %22, i64 16
  %24 = load ptr, ptr %23, align 8
  tail call void (ptr, i32, i32, ptr, ...) %24(ptr noundef nonnull align 8 dereferenceable(40) %19, i32 noundef 6, i32 noundef 8, ptr noundef nonnull @.str.20, double noundef %13, double noundef %21)
  %25 = load ptr, ptr %14, align 8
  %26 = getelementptr inbounds i8, ptr %0, i64 112
  %27 = load double, ptr %26, align 8
  %28 = load ptr, ptr %25, align 8
  %29 = getelementptr inbounds i8, ptr %28, i64 16
  %30 = load ptr, ptr %29, align 8
  tail call void (ptr, i32, i32, ptr, ...) %30(ptr noundef nonnull align 8 dereferenceable(40) %25, i32 noundef 6, i32 noundef 8, ptr noundef nonnull @.str.21, double noundef %8, double noundef %27)
  %31 = getelementptr inbounds i8, ptr %0, i64 160
  %32 = load double, ptr %31, align 8
  %33 = fcmp olt double %32, 0.000000e+00
  br i1 %33, label %34, label %36

34:                                               ; preds = %2
  %35 = tail call noundef double @_ZN5Ipopt17PenaltyLSAcceptor8CalcPredEd(ptr noundef nonnull align 8 dereferenceable(224) %0, double noundef %1)
  br label %36

36:                                               ; preds = %2, %34
  %.012 = phi double [ %35, %34 ], [ %32, %2 ]
  %37 = getelementptr inbounds i8, ptr %0, i64 208
  store double %.012, ptr %37, align 8
  %38 = load double, ptr %20, align 8
  %39 = getelementptr inbounds i8, ptr %0, i64 192
  %40 = load double, ptr %39, align 8
  %41 = load double, ptr %26, align 8
  %42 = tail call double @llvm.fmuladd.f64(double %40, double %41, double %38)
  %43 = tail call double @llvm.fmuladd.f64(double %40, double %8, double %13)
  %44 = fsub double %42, %43
  %45 = load ptr, ptr %14, align 8
  %46 = load ptr, ptr %45, align 8
  %47 = getelementptr inbounds i8, ptr %46, i64 16
  %48 = load ptr, ptr %47, align 8
  tail call void (ptr, i32, i32, ptr, ...) %48(ptr noundef nonnull align 8 dereferenceable(40) %45, i32 noundef 6, i32 noundef 8, ptr noundef nonnull @.str.22, double noundef %.012, double noundef %44)
  %49 = getelementptr inbounds i8, ptr %0, i64 72
  %50 = load double, ptr %49, align 8
  %51 = fmul double %.012, %50
  %52 = load double, ptr %20, align 8
  %53 = load double, ptr %39, align 8
  %54 = load double, ptr %26, align 8
  %55 = tail call double @llvm.fmuladd.f64(double %53, double %54, double %52)
  %56 = tail call noundef zeroext i1 @_ZN5Ipopt10Compare_leEddd(double noundef %51, double noundef %44, double noundef %55)
  %57 = load ptr, ptr %14, align 8
  %58 = load ptr, ptr %57, align 8
  %59 = getelementptr inbounds i8, ptr %58, i64 16
  %60 = load ptr, ptr %59, align 8
  %.str.23..str.24 = select i1 %56, ptr @.str.23, ptr @.str.24
  tail call void (ptr, i32, i32, ptr, ...) %60(ptr noundef nonnull align 8 dereferenceable(40) %57, i32 noundef 6, i32 noundef 8, ptr noundef nonnull %.str.23..str.24)
  ret i1 %56
}